#include <math.h>
#include <stdio.h>
#include <stdlib.h>
#include <string.h>

int main()
{
	int n;
	scanf("%d", &n);
	if(n==1)
		printf("End");
	else
	{do
	{
		if(n%2==0)
		{
			printf("%d/2", n);
			n=n/2;
			printf("=%d\n", n);
		}
		else
		{
			printf("%d*3+1", n);
			n=n*3+1;
			printf("=%d\n", n);
		}
		}while(n!=1);	
		printf("End");}

	return 0;
	}