; ModuleID = '34/217.c'
source_filename = "34/217.c"
target datalayout = "e-m:e-p270:32:32-p271:32:32-p272:64:64-i64:64-f80:128-n8:16:32:64-S128"
target triple = "x86_64-pc-linux-gnu"

@.str = private unnamed_addr constant [3 x i8] c"%d\00", align 1
@.str.1 = private unnamed_addr constant [4 x i8] c"End\00", align 1
@.str.2 = private unnamed_addr constant [5 x i8] c"%d/2\00", align 1
@.str.3 = private unnamed_addr constant [5 x i8] c"=%d\0A\00", align 1
@.str.4 = private unnamed_addr constant [7 x i8] c"%d*3+1\00", align 1

; Function Attrs: noinline nounwind uwtable
define dso_local i32 @main() #0 {
  %1 = alloca i32, align 4
  %2 = alloca i32, align 4
  store i32 0, i32* %1, align 4
  %3 = call i32 (i8*, ...) @__isoc99_scanf(i8* getelementptr inbounds ([3 x i8], [3 x i8]* @.str, i64 0, i64 0), i32* %2)
  %4 = load i32, i32* %2, align 4
  %5 = icmp eq i32 %4, 1
  br i1 %5, label %6, label %8

6:                                                ; preds = %0
  %7 = call i32 (i8*, ...) @printf(i8* getelementptr inbounds ([4 x i8], [4 x i8]* @.str.1, i64 0, i64 0))
  br label %34

8:                                                ; preds = %0
  br label %9

9:                                                ; preds = %29, %8
  %10 = load i32, i32* %2, align 4
  %11 = srem i32 %10, 2
  %12 = icmp eq i32 %11, 0
  br i1 %12, label %13, label %20

13:                                               ; preds = %9
  %14 = load i32, i32* %2, align 4
  %15 = call i32 (i8*, ...) @printf(i8* getelementptr inbounds ([5 x i8], [5 x i8]* @.str.2, i64 0, i64 0), i32 %14)
  %16 = load i32, i32* %2, align 4
  %17 = sdiv i32 %16, 2
  store i32 %17, i32* %2, align 4
  %18 = load i32, i32* %2, align 4
  %19 = call i32 (i8*, ...) @printf(i8* getelementptr inbounds ([5 x i8], [5 x i8]* @.str.3, i64 0, i64 0), i32 %18)
  br label %28

20:                                               ; preds = %9
  %21 = load i32, i32* %2, align 4
  %22 = call i32 (i8*, ...) @printf(i8* getelementptr inbounds ([7 x i8], [7 x i8]* @.str.4, i64 0, i64 0), i32 %21)
  %23 = load i32, i32* %2, align 4
  %24 = mul nsw i32 %23, 3
  %25 = add nsw i32 %24, 1
  store i32 %25, i32* %2, align 4
  %26 = load i32, i32* %2, align 4
  %27 = call i32 (i8*, ...) @printf(i8* getelementptr inbounds ([5 x i8], [5 x i8]* @.str.3, i64 0, i64 0), i32 %26)
  br label %28

28:                                               ; preds = %20, %13
  br label %29

29:                                               ; preds = %28
  %30 = load i32, i32* %2, align 4
  %31 = icmp ne i32 %30, 1
  br i1 %31, label %9, label %32

32:                                               ; preds = %29
  %33 = call i32 (i8*, ...) @printf(i8* getelementptr inbounds ([4 x i8], [4 x i8]* @.str.1, i64 0, i64 0))
  br label %34

34:                                               ; preds = %32, %6
  ret i32 0
}

declare dso_local i32 @__isoc99_scanf(i8*, ...) #1

declare dso_local i32 @printf(i8*, ...) #1


!llvm.module.flags = !{!0}
!llvm.ident = !{!1}

!0 = !{i32 1, !"wchar_size", i32 4}
!1 = !{!"clang version 10.0.0-4ubuntu1 "}
